target datalayout = "e-m:e-p270:32:32-p271:32:32-p272:64:64-i64:64-i128:128-f80:128-n8:16:32:64-S128"
target triple = "x86_64-pc-linux-gnu"

%struct._zend_array = type { %struct._zend_refcounted_h, %union.anon.0, i32, %union.anon.1, i32, i32, i32, i32, i64, ptr }
%struct._zend_refcounted_h = type { i32, %union.anon }
%union.anon = type { i32 }
%union.anon.0 = type { i32 }
%union.anon.1 = type { ptr }
%struct._zval_struct = type { %union._zend_value, %union.anon.3, %union.anon.6 }
%union._zend_value = type { i64 }
%union.anon.3 = type { i32 }
%union.anon.6 = type { i32 }
%struct._Bucket = type { %struct._zval_struct, i64, ptr }
%struct._zend_string = type { %struct._zend_refcounted_h, i64, i64, [1 x i8] }

; Function Attrs: nounwind uwtable
define ptr @zend_hash_find_known_hash(ptr noundef %0, ptr noundef %1) #0 {
  %3 = alloca ptr, align 8
  %4 = alloca ptr, align 8
  %5 = alloca ptr, align 8
  %6 = alloca ptr, align 8
  %7 = alloca ptr, align 8
  %8 = alloca i32, align 4
  %9 = alloca i32, align 4
  %10 = alloca ptr, align 8
  %11 = alloca ptr, align 8
  %12 = alloca ptr, align 8
  %13 = alloca ptr, align 8
  %14 = alloca ptr, align 8
  store ptr %0, ptr %12, align 8
  store ptr %1, ptr %13, align 8
  %15 = load ptr, ptr %12, align 8
  %16 = load ptr, ptr %13, align 8
  store ptr %15, ptr %6, align 8
  store ptr %16, ptr %7, align 8
  %17 = load ptr, ptr %7, align 8
  %18 = getelementptr inbounds %struct._zend_string, ptr %17, i32 0, i32 1
  %19 = load i64, ptr %18, align 8
  %20 = icmp ne i64 %19, 0
  br i1 %20, label %21, label %22

21:                                               ; preds = %2
  br label %22

22:                                               ; preds = %21, %2
  %23 = phi i1 [ false, %2 ], [ true, %21 ]
  call void @llvm.assume(i1 %23)
  %24 = load ptr, ptr %6, align 8
  %25 = getelementptr inbounds %struct._zend_array, ptr %24, i32 0, i32 3
  %26 = load ptr, ptr %25, align 8
  store ptr %26, ptr %11, align 8
  %27 = load ptr, ptr %7, align 8
  %28 = getelementptr inbounds %struct._zend_string, ptr %27, i32 0, i32 1
  %29 = load i64, ptr %28, align 8
  %30 = load ptr, ptr %6, align 8
  %31 = getelementptr inbounds %struct._zend_array, ptr %30, i32 0, i32 2
  %32 = load i32, ptr %31, align 4
  %33 = zext i32 %32 to i64
  %34 = or i64 %29, %33
  %35 = trunc i64 %34 to i32
  store i32 %35, ptr %8, align 4
  %36 = load ptr, ptr %11, align 8
  %37 = load i32, ptr %8, align 4
  %38 = sext i32 %37 to i64
  %39 = getelementptr inbounds i32, ptr %36, i64 %38
  %40 = load i32, ptr %39, align 4
  store i32 %40, ptr %9, align 4
  %41 = load i32, ptr %9, align 4
  %42 = icmp eq i32 %41, -1
  br i1 %42, label %43, label %44

43:                                               ; preds = %22
  store ptr null, ptr %5, align 8
  br label %110

44:                                               ; preds = %22
  %45 = load ptr, ptr %11, align 8
  %46 = load i32, ptr %9, align 4
  %47 = zext i32 %46 to i64
  %48 = getelementptr inbounds %struct._Bucket, ptr %45, i64 %47
  store ptr %48, ptr %10, align 8
  %49 = load ptr, ptr %10, align 8
  %50 = getelementptr inbounds %struct._Bucket, ptr %49, i32 0, i32 2
  %51 = load ptr, ptr %50, align 8
  %52 = load ptr, ptr %7, align 8
  %53 = icmp eq ptr %51, %52
  br i1 %53, label %54, label %56

54:                                               ; preds = %44
  %55 = load ptr, ptr %10, align 8
  store ptr %55, ptr %5, align 8
  br label %110

56:                                               ; preds = %44
  br label %57

57:                                               ; preds = %109, %56
  %58 = load ptr, ptr %10, align 8
  %59 = getelementptr inbounds %struct._Bucket, ptr %58, i32 0, i32 1
  %60 = load i64, ptr %59, align 8
  %61 = load ptr, ptr %7, align 8
  %62 = getelementptr inbounds %struct._zend_string, ptr %61, i32 0, i32 1
  %63 = load i64, ptr %62, align 8
  %64 = icmp eq i64 %60, %63
  br i1 %64, label %65, label %90

65:                                               ; preds = %57
  %66 = load ptr, ptr %10, align 8
  %67 = getelementptr inbounds %struct._Bucket, ptr %66, i32 0, i32 2
  %68 = load ptr, ptr %67, align 8
  %69 = icmp ne ptr %68, null
  br i1 %69, label %70, label %90

70:                                               ; preds = %65
  %71 = load ptr, ptr %10, align 8
  %72 = getelementptr inbounds %struct._Bucket, ptr %71, i32 0, i32 2
  %73 = load ptr, ptr %72, align 8
  %74 = load ptr, ptr %7, align 8
  store ptr %73, ptr %3, align 8
  store ptr %74, ptr %4, align 8
  %75 = load ptr, ptr %3, align 8
  %76 = getelementptr inbounds %struct._zend_string, ptr %75, i32 0, i32 2
  %77 = load i64, ptr %76, align 8
  %78 = load ptr, ptr %4, align 8
  %79 = getelementptr inbounds %struct._zend_string, ptr %78, i32 0, i32 2
  %80 = load i64, ptr %79, align 8
  %81 = icmp eq i64 %77, %80
  br i1 %81, label %82, label %86

82:                                               ; preds = %70
  %83 = load ptr, ptr %3, align 8
  %84 = load ptr, ptr %4, align 8
  %85 = call zeroext i1 @zend_string_equal_val(ptr noundef %83, ptr noundef %84) #15
  br label %86

86:                                               ; preds = %82, %70
  %87 = phi i1 [ false, %70 ], [ %85, %82 ]
  br i1 %87, label %88, label %90

88:                                               ; preds = %86
  %89 = load ptr, ptr %10, align 8
  store ptr %89, ptr %5, align 8
  br label %110

90:                                               ; preds = %86, %65, %57
  %91 = load ptr, ptr %10, align 8
  %92 = getelementptr inbounds %struct._zval_struct, ptr %91, i32 0, i32 2
  %93 = load i32, ptr %92, align 4
  store i32 %93, ptr %9, align 4
  %94 = load i32, ptr %9, align 4
  %95 = icmp eq i32 %94, -1
  br i1 %95, label %96, label %97

96:                                               ; preds = %90
  store ptr null, ptr %5, align 8
  br label %110

97:                                               ; preds = %90
  %98 = load ptr, ptr %11, align 8
  %99 = load i32, ptr %9, align 4
  %100 = zext i32 %99 to i64
  %101 = getelementptr inbounds %struct._Bucket, ptr %98, i64 %100
  store ptr %101, ptr %10, align 8
  %102 = load ptr, ptr %10, align 8
  %103 = getelementptr inbounds %struct._Bucket, ptr %102, i32 0, i32 2
  %104 = load ptr, ptr %103, align 8
  %105 = load ptr, ptr %7, align 8
  %106 = icmp eq ptr %104, %105
  br i1 %106, label %107, label %109

107:                                              ; preds = %97
  %108 = load ptr, ptr %10, align 8
  store ptr %108, ptr %5, align 8
  br label %110

109:                                              ; preds = %97
  br label %57

110:                                              ; preds = %107, %96, %88, %54, %43
  %111 = load ptr, ptr %5, align 8
  store ptr %111, ptr %14, align 8
  %112 = load ptr, ptr %14, align 8
  %113 = icmp ne ptr %112, null
  br i1 %113, label %114, label %117

114:                                              ; preds = %110
  %115 = load ptr, ptr %14, align 8
  %116 = getelementptr inbounds %struct._Bucket, ptr %115, i32 0, i32 0
  br label %118

117:                                              ; preds = %110
  br label %118

118:                                              ; preds = %117, %114
  %119 = phi ptr [ %116, %114 ], [ null, %117 ]
  ret ptr %119
}