; Function Attrs: nounwind uwtable
define ptr @zend_hash_find_known_hash(ptr nocapture noundef readonly %0, ptr noundef %1) local_unnamed_addr #0 {
  %3 = getelementptr inbounds i8, ptr %1, i64 8
  %4 = load i64, ptr %3, align 8
  %5 = icmp ne i64 %4, 0
  tail call void @llvm.assume(i1 %5)
  %6 = getelementptr inbounds i8, ptr %0, i64 16
  %7 = load ptr, ptr %6, align 8
  %8 = getelementptr inbounds i8, ptr %0, i64 12
  %9 = load i32, ptr %8, align 4
  %10 = trunc i64 %4 to i32
  %11 = or i32 %9, %10
  %12 = sext i32 %11 to i64
  %13 = getelementptr inbounds i32, ptr %7, i64 %12
  %14 = load i32, ptr %13, align 4
  %15 = icmp eq i32 %14, -1
  br i1 %15, label %.loopexit, label %16

16:                                               ; preds = %2
  %17 = zext i32 %14 to i64
  %18 = getelementptr inbounds %struct._Bucket, ptr %7, i64 %17
  %19 = getelementptr inbounds i8, ptr %18, i64 24
  %20 = load ptr, ptr %19, align 8
  %21 = icmp eq ptr %20, %1
  br i1 %21, label %.loopexit, label %.preheader

.preheader:                                       ; preds = %16
  %22 = getelementptr inbounds i8, ptr %1, i64 16
  br label %23

23:                                               ; preds = %.preheader, %39
  %24 = phi ptr [ %43, %39 ], [ %20, %.preheader ]
  %.033 = phi ptr [ %41, %39 ], [ %18, %.preheader ]
  %25 = getelementptr inbounds i8, ptr %.033, i64 16
  %26 = load i64, ptr %25, align 8
  %27 = load i64, ptr %3, align 8
  %28 = icmp ne i64 %26, %27
  %.not = icmp eq ptr %24, null
  %or.cond = or i1 %28, %.not
  br i1 %or.cond, label %.critedge, label %29

29:                                               ; preds = %23
  %30 = getelementptr inbounds i8, ptr %24, i64 16
  %31 = load i64, ptr %30, align 8
  %32 = load i64, ptr %22, align 8
  %33 = icmp eq i64 %31, %32
  br i1 %33, label %34, label %.critedge

34:                                               ; preds = %29
  %35 = tail call zeroext i1 @zend_string_equal_val(ptr noundef nonnull %24, ptr noundef nonnull %1) #27
  br i1 %35, label %.loopexit, label %.critedge

.critedge:                                        ; preds = %29, %34, %23
  %36 = getelementptr inbounds i8, ptr %.033, i64 12
  %37 = load i32, ptr %36, align 4
  %38 = icmp eq i32 %37, -1
  br i1 %38, label %.loopexit, label %39

39:                                               ; preds = %.critedge
  %40 = zext i32 %37 to i64
  %41 = getelementptr inbounds %struct._Bucket, ptr %7, i64 %40
  %42 = getelementptr inbounds i8, ptr %41, i64 24
  %43 = load ptr, ptr %42, align 8
  %44 = icmp eq ptr %43, %1
  br i1 %44, label %.loopexit, label %23

.loopexit:                                        ; preds = %39, %.critedge, %34, %16, %2
  %.0 = phi ptr [ null, %2 ], [ %18, %16 ], [ %41, %39 ], [ null, %.critedge ], [ %.033, %34 ]
  ret ptr %.0
}